(imarkov.markov_state
markov_state
p0
(dp1
S'first_order'
p2
(dp3
S'exclusive'
p4
(dp5
S'artwork'
p6
I1
ssS'all'
p7
(dp8
S'kinds'
p9
I1
ssS'all-new'
p10
(dp11
S'star'
p12
I1
ssS'help'
p13
(dp14
S'to'
p15
I2
sS'your'
p16
I1
ssS"don't"
p17
(dp18
S'study'
p19
I1
ssS'mind-sharpening'
p20
(dp21
S'game'
p22
I1
ssS'seen'
p23
(dp24
S'on'
p25
I1
ssS'gazillion'
p26
(dp27
S'of'
p28
I1
ssS'identify'
p29
(dp30
S'a'
p31
I1
ssS'flashcard'
p32
(dp33
S'study'
p34
I1
ssS'go'
p35
(dp36
S'to'
p37
I1
ssS'letters'
p38
(dp39
S'and'
p40
I1
ssS'find'
p41
(dp42
S'scholarships'
p43
I1
ssS'geography'
p44
(dp45
S'fun!'
p46
I1
ssS'stargazing'
p47
(dp48
S'experience'
p49
I1
ssS'coloring'
p50
(dp51
S'book,'
p52
I1
ssS'application'
p53
(dp54
S'-'
p55
I1
ssS'outdated'
p56
(dp57
S"app's"
p58
I1
ssS'pups'
p59
(dp60
S'need'
p61
I2
ssS'solving'
p62
(dp63
S'kids'
p64
I1
ssS'sky'
p65
(dp66
S'map'
p67
I1
ssS','
p68
(dp69
S'in'
p70
I1
ssS'to'
p71
(dp72
S'read!'
p73
I1
sS'use'
p74
I1
sS'race'
p75
I1
sS'organize,'
p76
I1
sS'army'
p77
I1
sS'read'
p78
I1
sS'toca'
p79
I1
sS'your'
p80
I1
sS'observe'
p81
I1
sg29
I1
sS'life!'
p82
I1
sS'play,'
p83
I1
sS'date'
p84
I1
sS'save'
p85
I2
sg41
I1
sS'logic'
p86
I1
ssS'version'
p87
(dp88
S'of'
p89
I1
ssS'award'
p90
(dp91
S'winner!'
p92
I1
ssS'board'
p93
(dp94
S'preparation'
p95
I1
ssS'easy'
p96
(dp97
S'to'
p98
I1
sS'way'
p99
I1
ssS'2,'
p100
(dp101
S'with'
p102
I1
ssg85
(dp103
S'adventure'
p104
I2
ssS'app'
p105
(dp106
g31
I1
sS'with'
p107
I1
sS'expand'
p108
I1
ssg75
(dp109
S'along'
p110
I1
sS'day'
p111
I1
ssS'premium'
p112
(dp113
g87
I1
ssS'pets'
p114
(dp115
S'need'
p116
I1
ssS'spectacular'
p117
(dp118
g47
I1
ssS'look!'
p119
(dp120
S'the'
p121
I1
ssg78
(dp122
S'with'
p123
I1
ssS'powerful'
p124
(dp125
S'and'
p126
I1
ssg79
(dp127
S'pet'
p128
I1
sS'lab!'
p129
I1
sS'mini!'
p130
I1
sS'life:'
p131
I1
sS'nature'
p132
I1
ssS'choice'
p133
(dp134
g90
I1
ssS'cheerful'
p135
(dp136
S'game'
p137
I1
ssS'kids!'
p138
(dp139
S'kids'
p140
I1
sS"mickey's"
p141
I1
ssS'game'
p142
(dp143
S'where'
p144
I1
sS'stack'
p145
I1
sS'for'
p146
I1
sS'that'
p147
I1
ssS'alcoholics'
p148
(dp149
S'anonymous'
p150
I1
ssS'more!'
p151
(dp152
S'monkey'
p153
I1
ssS'words'
p154
(dp155
S'in'
p156
I1
ssg6
(dp157
S'and'
p158
I1
ssS'world'
p159
(dp160
S'of'
p161
I3
sg44
I1
sS'where'
p162
I1
sS'famous'
p163
I1
ssS'blast'
p164
(dp165
S'into'
p166
I1
ssg111
(dp167
S'in'
p168
I1
ssS'preschool'
p169
(dp170
S'lunchbox:'
p171
I1
ssS'literacy'
p172
(dp173
S'games'
p174
I1
ssS'bay!'
p175
(dp176
S'see,'
p177
I1
sS'give'
p178
I1
ssS'school'
p179
(dp180
g55
I1
ssS'magic'
p181
(dp182
S'to'
p183
I1
sS'toca'
p184
I1
ssS'pbs'
p185
(dp186
g138
I1
ssS'countries'
p187
(dp188
S'makes'
p189
I1
ssS'umi'
p190
(dp191
S'city!'
p192
I1
ssS'puzzle'
p193
(dp194
g62
I1
ssS'routines'
p195
(dp196
S'at'
p197
I1
ssS'50'
p198
(dp199
S'states'
p200
I1
ssS'lightning'
p201
(dp202
S'speed!'
p203
I1
ssS'realistic'
p204
(dp205
g65
I1
ssS'stars,'
p206
(dp207
S'planets'
p208
I1
ssS'phonics'
p209
(dp210
S'and'
p211
I1
sS'island'
p212
I1
ssS'have'
p213
(dp214
S'arrived!'
p215
I1
ssS'through'
p216
(dp217
S'play!'
p218
I1
ssg162
(dp219
S'your'
p220
I1
sS'anything'
p221
I1
sS'children'
p222
I1
ssg212
(dp223
g179
I1
ssS'jasper'
p224
(dp225
S'as'
p226
I1
ssS'sentences,'
p227
(dp228
S'and'
p229
I1
ssg129
(dp230
S'discover'
p231
I1
ssS'everyone'
p232
(dp233
S'is'
p234
I1
ssg171
(dp235
S'7'
p236
I1
ssS'math,'
p237
(dp238
S'puzzles,'
p239
I1
ssS'house'
p240
(dp241
S'the'
p242
I1
ssS'pals'
p243
(dp244
S'from'
p245
I1
ssg192
(dp246
S'join'
p247
I1
ssg231
(dp248
S'elements'
p249
I1
ssS'10'
p250
(dp251
S'fun'
p252
I1
ssS'up'
p253
(dp254
S'to'
p255
I1
ssS'sight'
p256
(dp257
S'words,'
p258
I1
ssS'fingertips'
p259
(dp260
S'ryder'
p261
I1
ssg12
(dp262
S'gazing'
p263
I1
sS'chart'
p264
I1
sS'walk'
p265
I1
ssS'best'
p266
(dp267
S'abc'
p268
I1
ssS'established'
p269
(dp270
g35
I1
ssS'mickey'
p271
(dp272
S'mouse'
p273
I1
ssg43
(dp274
S'welcome'
p275
I1
ssS'wealth'
p276
(dp277
S'of'
p278
I1
ssS'for'
p279
(dp280
S'kids!'
p281
I1
sS'race'
p282
I1
sS'your'
p283
I1
sS'an'
p284
I1
ssS'space'
p285
(dp286
S'with'
p287
I1
ssg128
(dp288
S'doctor'
p289
I1
ssS'harvey'
p290
(dp291
S'the'
p292
I1
ssg203
(dp293
S'master'
p294
I1
ssS'constellations!'
p295
(dp296
S'meet'
p297
I1
ssS'yet'
p298
(dp299
g124
I1
ssS'available!'
p300
(dp301
g17
I1
ssS'track'
p302
(dp303
S'your'
p304
I1
ssS'3'
p305
(dp306
S'new'
p307
I1
ssS'daniel'
p308
(dp309
S'tiger'
p310
I1
sS"tiger's"
p311
I1
ssg247
(dp312
S'monkey'
p313
I1
sS'milo,'
p314
I1
ssg236
(dp315
S'exciting'
p316
I1
ssS'new'
p317
(dp318
S'animals'
p319
I1
sg119
I1
ssS'get'
p320
(dp321
S'ready'
p322
I1
sS'behind'
p323
I1
ssS'reading'
p324
(dp325
g209
I1
ssS'adorable'
p326
(dp327
S'app!'
p328
I1
ssS'3d'
p329
(dp330
g50
I1
sS'constellations'
p331
I1
ssS'languages!'
p332
(dp333
S'the'
p334
I1
ssS'run'
p335
(dp336
S'wild'
p337
I1
ssS'monster'
p338
(dp339
S'machines!'
p340
I1
ssS'nature'
p341
(dp342
S'is'
p343
I1
sS'delivers'
p344
I1
ssS'shapes,'
p345
(dp346
S'patterns'
p347
I1
ssg52
(dp348
S'where'
p349
I1
ssS'little'
p350
(dp351
S'patients'
p352
I1
ssS'jr'
p353
(dp354
g68
I1
ssg264
(dp355
S'with'
p356
I1
ssS'fun'
p357
(dp358
S'to'
p359
I1
sS'doctor'
p360
I1
ssS'experimenting'
p361
(dp362
S'with'
p363
I1
ssS'objects'
p364
(dp365
g320
I1
ssS'let'
p366
(dp367
S'your'
p368
I1
ssS'aquarium'
p369
(dp370
S'for'
p371
I1
ssS'matching,'
p372
(dp373
S'colors,'
p374
I1
ssg316
(dp375
S'educational'
p376
I1
ssS'super'
p377
(dp378
S'abc'
p379
I1
sS'why'
p380
I1
ssS'by'
p381
(dp382
g361
I1
ssS'full-featured'
p383
(dp384
g32
I1
ssg239
(dp385
S'sizes,'
p386
I1
ssS'about'
p387
(dp388
S'the'
p389
I1
sS'animals'
p390
I1
sg7
I1
sS'bedtime'
p391
I1
ssg140
(dp392
S'to'
p393
I1
sS'play'
p394
I1
sS'learn'
p395
I1
ssg221
(dp396
S'and'
p397
I1
ssS'of'
p398
(dp399
S'celestial'
p400
I1
sS'additional'
p401
I1
sS'toca'
p402
I1
sS'letters,'
p403
I1
sS'feelings'
p404
I1
sS'the'
p405
I1
sS'monkey'
p406
I1
ssS'study'
p407
(dp408
S'app'
p409
I1
sg56
I1
sS'guide'
p410
I1
ssg77
(dp411
g407
I1
sg93
I1
ssS'introduces'
p412
(dp413
S'kids'
p414
I1
ssS'explore'
p415
(dp416
S'the'
p417
I1
ssg49
(dp418
S'to'
p419
I1
ssS'babies,'
p420
(dp421
S'as'
p422
I1
ssS"parents'"
p423
(dp424
g133
I1
ssS'games'
p425
(dp426
S'and'
p427
I1
sS'hear,'
p428
I1
sS'the'
p429
I1
sS'from'
p430
I1
sg279
I1
ssS'addictive'
p431
(dp432
S'game'
p433
I1
ssg218
(dp434
g148
I1
ssS'best-selling'
p435
(dp436
S'toddler'
p437
I1
ssS'play,'
p438
(dp439
g20
I1
sS'sing,'
p440
I1
ssS'makes'
p441
(dp442
S'learning'
p443
I2
ssg150
(dp444
S'daily'
p445
I1
ssS'comes'
p446
(dp447
S'to'
p448
I1
ssS'bath'
p449
(dp450
S'time'
p451
I1
ssS'detailed'
p452
(dp453
S'star'
p454
I1
ssg58
(dp455
S'dive'
p456
I1
ssS'love'
p457
(dp458
g117
I1
ssS'town,'
p459
(dp460
g31
I1
ssS'family'
p461
(dp462
g31
I1
ssS'counting,'
p463
(dp464
S'numbers,'
p465
I1
ssS'scholly'
p466
(dp467
g55
I1
ssg166
(dp468
S'our'
p469
I1
sg285
I1
ssg76
(dp470
S'level,'
p471
I1
ssS'wheel'
p472
(dp473
S'for'
p474
I1
ssg404
(dp475
S'with'
p476
I1
ssg84
(dp477
S'army'
p478
I1
ssg465
(dp479
S'letters,'
p480
I1
ssS'fun!'
p481
(dp482
g357
I1
sS'letters,'
p483
I1
ssg391
(dp484
S'and'
p485
I1
ssg443
(dp486
S'world'
p487
I1
sg387
I1
sg463
I1
sS'adventure'
p488
I1
ssg374
(dp489
g345
I1
ssS'fun,'
p490
(dp491
g431
I1
ssS'sounds'
p492
(dp493
S'in'
p494
I1
ssg445
(dp495
S'reflections'
p496
I1
ssS'tools'
p497
(dp498
S'you'
p499
I1
ssg283
(dp500
S'caring'
p501
I1
sS'vocab'
p502
I1
sS"child's"
p503
I3
sg243
I1
sg259
I1
sS'imagination'
p504
I1
sS'book'
p505
I1
sS'child'
p506
I1
sS'preschooler'
p507
I1
sS'friends'
p508
I1
sS'friend'
p509
I1
ssg86
(dp510
S'&'
p511
I1
ssg501
(dp512
g457
I1
ssg323
(dp513
S'the'
p514
I1
ssg74
(dp515
g298
I1
ssS'astronomy'
p516
(dp517
S'app'
p518
I1
ssg430
(dp519
g271
I1
sS'dinosaur'
p520
I1
sg185
I1
ssg153
(dp521
S'as'
p522
I1
sg169
I2
ssg511
(dp523
g193
I1
sS'12'
p524
I1
sS'learn'
p525
I1
ssS'teach'
p526
(dp527
S'child'
p528
I1
ssS'totally'
p529
(dp530
g317
I1
ssS'interact'
p531
(dp532
S'with'
p533
I1
ssS'creativity'
p534
(dp535
g446
I1
ssg380
(dp536
g172
I1
ssS'clubhouse!'
p537
(dp538
S'get'
p539
I1
ssg294
(dp540
g154
I1
ssg99
(dp541
g71
I2
ssS'memory'
p542
(dp543
S'from'
p544
I1
ssS'magical'
p545
(dp546
S'3d'
p547
I1
ssg311
(dp548
g240
I1
ssg509
(dp549
g308
I1
ssS'blaze'
p550
(dp551
S'and'
p552
I1
ssS'building'
p553
(dp554
S'and'
p555
I1
ssS'dinos'
p556
(dp557
g213
I1
ssg503
(dp558
g534
I1
sg13
I2
ssS'sequence,'
p559
(dp560
g542
I1
ssg471
(dp561
S'and'
p562
I1
ssS'explores'
p563
(dp564
g31
I1
ssS'crafting'
p565
(dp566
g142
I1
ssS'you!'
p567
(dp568
S'in'
p569
I1
ssg310
(dp570
g341
I1
ssg81
(dp571
g206
I1
ssg506
(dp572
g216
I1
sS'learn'
p573
I1
ssg344
(dp574
S'that'
p575
I1
ssS'an'
p576
(dp577
S'amazing'
p578
I1
sS'ultimate'
p579
I1
sS'easy'
p580
I1
ssg287
(dp581
g31
I1
sg4
I1
sg38
I1
sS'yo'
p582
I1
sg290
I1
sg201
I1
sg305
I1
sg550
I1
sS'the'
p583
I1
sg377
I1
sS'your'
p584
I2
ssS'he'
p585
(dp586
g563
I1
ssg502
(dp587
S'with'
p588
I1
ssg263
(dp589
S'and'
p590
I1
ssg524
(dp591
S'different'
p592
I1
ssg319
(dp593
S'educational'
p594
I1
sg511
I1
ssg504
(dp595
g335
I1
ssS'this'
p596
(dp597
g326
I1
ssg340
(dp598
S'ryder'
p599
I1
ssg131
(dp600
g459
I1
ssS'dog!'
p601
(dp602
g466
I1
ssg95
(dp603
S'app!'
p604
I1
ssS'gabba'
p605
(dp606
S'gabba!'
p607
I1
ssg352
(dp608
S'join'
p609
I1
ssS'cure'
p610
(dp611
g350
I1
ssg82
(dp612
g553
I1
ssS'learn'
p613
(dp614
S'to'
p615
I2
sS'about'
p616
I3
ssg337
(dp617
S'in'
p618
I1
ssg297
(dp619
g10
I1
ssg410
(dp620
g300
I1
ssg604
(dp621
S'the'
p622
I1
sS'an'
p623
I1
ssg397
(dp624
g452
I1
sg565
I1
sg232
I1
sg461
I1
sg302
I1
sg224
I1
sg531
I1
sS'activities!'
p625
I1
sg295
I1
sg449
I1
sS'spelling'
p626
I1
sg610
I1
sS'games'
p627
I1
sg151
I1
sg613
I2
sS'the'
p628
I3
sg383
I1
sg492
I1
sg516
I1
sg329
I1
ssg400
(dp629
g364
I1
ssS'want'
p630
(dp631
S'your'
p632
I1
ssg178
(dp633
S'your'
p634
I1
ssg234
(dp635
S'welcome'
p636
I1
sg181
I1
ssg625
(dp637
S'the'
p638
I1
ssg386
(dp639
g372
I1
ssg331
(dp640
S'help'
p641
I1
ssg483
(dp642
g559
I1
sg256
I1
sg237
I1
ssS'states'
p643
(dp644
g481
I1
sg441
I1
ssg322
(dp645
S'to'
p646
I1
ssg422
(dp647
g23
I1
sS'they'
p648
I1
sg585
I1
ssS'words,'
p649
(dp650
g227
I1
sS'phonics'
p651
I1
ssg197
(dp652
S'daniel'
p653
I1
ssg208
(dp654
S'and'
p655
I1
ssS'in'
p656
(dp657
g31
I1
sg596
I1
sS'toca'
p658
I2
sg649
I1
sS'the'
p659
I1
sg190
I1
ssg61
(dp660
S'your'
p661
I2
sg567
I1
ssg507
(dp662
g438
I1
ssg648
(dp663
g415
I1
ssg273
(dp664
g537
I1
ssS'rescue'
p665
(dp666
g556
I1
ssg376
(dp667
g53
I1
sg425
I1
ssg141
(dp668
g545
I1
ssS'colorful'
p669
(dp670
S'world'
p671
I1
ssg25
(dp672
S'nick'
p673
I1
ssg289
(dp674
S'and'
p675
I1
sS'our'
p676
I1
sS'games'
p677
I1
ssS'alphabet'
p678
(dp679
g369
I1
sS'adventure'
p680
I1
ssg575
(dp681
g412
I1
sS'magic'
p682
I1
ssg55
(dp683
S'the'
p684
I1
sg526
I1
sg423
I1
ssg265
(dp685
g100
I1
ssg673
(dp686
g353
I1
ssg578
(dp687
S'way'
p688
I1
ssg505
(dp689
S'library!'
p690
I1
ssS'functionality'
p691
(dp692
S'the'
p693
I1
ssS'take'
p694
(dp695
g31
I1
ssS'animal'
p696
(dp697
S'friends'
p698
I1
ssg401
(dp699
g691
I1
ssg499
(dp700
S'rule'
p701
I1
ssg437
(dp702
g105
I1
ssS'touch,'
p703
(dp704
S'and'
p705
I1
ssg314
(dp706
S'zuzu'
p707
I1
ssg496
(dp708
S'learning'
p709
I1
ssg73
(dp710
g576
I1
ssg67
(dp711
S'to'
p712
I1
ssS'play'
p713
(dp714
g31
I1
sg159
I1
sS'with'
p715
I1
sg511
I1
ssg249
(dp716
g381
I1
ssg9
(dp717
g398
I1
ssg215
(dp718
g250
I1
ssg520
(dp719
S'games'
p720
I1
ssg676
(dp721
g678
I1
sg696
I1
ssg456
(dp722
S'into'
p723
I1
ssg275
(dp724
S'to'
p725
I1
sS'stack'
p726
I1
ssg582
(dp727
g605
I1
ssg592
(dp728
g332
I1
ssS'lab'
p729
(dp730
g497
I1
ssS'most'
p731
(dp732
g204
I1
sg253
I1
ssg379
(dp733
S'alphabet'
p734
I1
sg324
I1
ssg104
(dp735
S'with'
p736
I1
sg175
I2
sg366
I1
ssg110
(dp737
S'with'
p738
I1
ssS'hear,'
p739
(dp740
S'and'
p741
I1
sg703
I1
ssg626
(dp742
g135
I1
ssg177
(dp743
g739
I1
ssg508
(dp744
S'and'
p745
I1
sg630
I1
ssg726
(dp746
S'the'
p747
I2
ssg108
(dp748
S'your'
p749
I1
ssg31
(dp750
g713
I1
sg276
I1
sS'doctor'
p751
I1
sS'clear'
p752
I1
sg26
I1
sS'learning'
p753
I1
sS'world'
p754
I1
sg490
I1
sg529
I1
ssg92
(dp755
g694
I1
ssg163
(dp756
S'star'
p757
I1
ssg607
(dp758
g420
I1
ssg752
(dp759
S'and'
p760
I1
ssg130
(dp761
S'play'
p762
I1
ssg222
(dp763
S'play'
p764
I1
ssg261
(dp765
S'and'
p766
I2
ssg701
(dp767
g656
I1
ssg707
(dp768
S'and'
p769
I1
ssg347
(dp770
S'and'
p771
I1
ssg690
(dp772
S'most'
p773
I1
ssg579
(dp774
S'super'
p775
I1
ssg451
(dp776
g195
I1
ssg292
(dp777
g472
I1
sg269
I1
sg112
I1
sg114
I1
sg669
I1
sg187
I1
sg435
I1
sg59
I2
sg198
I1
sg729
I1
sg601
I1
sg643
I1
sg731
I1
sg266
I1
sg96
I1
sS'world'
p778
I2
sg665
I1
sg338
I1
ssg440
(dp779
S'and'
p780
I1
sssS'config'
p781
S'education'
p782
sS'second_order'
p783
(dp784
g4
(dp785
g158
I1
ssg7
(dp786
g398
I1
ssg10
(dp787
g265
I1
ssg13
(dp788
g85
I2
sg506
I1
ssg17
(dp789
g56
I1
ssg20
(dp790
g147
I1
ssg23
(dp791
g673
I1
ssg26
(dp792
g400
I1
ssg29
(dp793
g26
I1
ssg32
(dp794
g409
I1
ssg35
(dp795
g77
I1
ssg38
(dp796
g492
I1
ssg41
(dp797
g275
I1
ssg44
(dp798
g357
I1
ssg47
(dp799
g419
I1
ssg50
(dp800
g349
I1
ssg53
(dp801
g526
I1
ssg56
(dp802
g456
I1
ssg59
(dp803
g661
I2
ssg62
(dp804
g395
I1
ssg65
(dp805
g712
I1
ssg68
(dp806
g596
I1
ssg71
(dp807
g553
I1
sg31
I1
sg129
I1
sg43
I1
sg478
I1
sg511
I1
sg471
I1
sg20
I1
sg576
I1
sg206
I1
sg104
I2
sg259
I1
sg110
I1
sg123
I1
sg298
I1
sg93
I1
ssg87
(dp808
g405
I1
ssg90
(dp809
g694
I1
ssg93
(dp810
g604
I1
ssg96
(dp811
g71
I1
sg74
I1
ssg100
(dp812
g4
I1
ssg85
(dp813
g175
I2
ssg105
(dp814
g305
I1
sg752
I1
sg749
I1
ssg75
(dp815
g738
I1
sg168
I1
ssg112
(dp816
g89
I1
ssg114
(dp817
g567
I1
ssg117
(dp818
g49
I1
ssg119
(dp819
g731
I1
ssg78
(dp820
g377
I1
ssg124
(dp821
g383
I1
ssg79
(dp822
g762
I1
sg344
I1
sg289
I1
sg231
I1
sg459
I1
ssg133
(dp823
g92
I1
ssg135
(dp824
g144
I1
ssg138
(dp825
g394
I1
sg545
I1
ssg142
(dp826
g281
I1
sS'the'
p827
I1
sg412
I1
sg222
I1
ssg148
(dp828
g445
I1
ssg151
(dp829
g169
I1
ssg154
(dp830
g31
I1
ssg6
(dp831
g329
I1
ssg159
(dp832
g757
I1
sg406
I1
sg221
I1
sg402
I1
sg403
I1
sg46
I1
ssg164
(dp833
g285
I1
ssg111
(dp834
g190
I1
ssg169
(dp835
g236
I1
ssg172
(dp836
g430
I1
ssg175
(dp837
g739
I1
sg634
I1
ssg179
(dp838
g423
I1
ssg181
(dp839
g80
I1
sg132
I1
ssg185
(dp840
g141
I1
ssg187
(dp841
S'learning'
p842
I1
ssg190
(dp843
g247
I1
ssg193
(dp844
g64
I1
ssg195
(dp845
g653
I1
ssg198
(dp846
g481
I1
ssg201
(dp847
g294
I1
ssg204
(dp848
g67
I1
ssg206
(dp849
g655
I1
ssg209
(dp850
g179
I1
sg626
I1
ssg213
(dp851
g250
I1
ssg216
(dp852
g148
I1
ssg162
(dp853
g397
I1
sg764
I1
sS"child's"
p854
I1
ssg212
(dp855
g55
I1
ssg224
(dp856
g648
I1
ssg227
(dp857
g627
I1
ssg129
(dp858
g249
I1
ssg232
(dp859
g636
I1
ssg171
(dp860
g316
I1
ssg237
(dp861
g386
I1
ssg240
(dp862
g435
I1
ssg243
(dp863
g271
I1
ssg192
(dp864
g313
I1
ssg231
(dp865
g381
I1
ssg250
(dp866
g360
I1
ssg253
(dp867
g84
I1
ssg256
(dp868
g651
I1
ssg259
(dp869
g766
I1
ssg12
(dp870
g100
I1
sg590
I1
sg356
I1
ssg266
(dp871
g324
I1
ssg269
(dp872
g37
I1
ssg271
(dp873
g537
I1
ssg43
(dp874
g725
I1
ssg276
(dp875
g401
I1
ssg279
(dp876
g507
I1
sg140
I1
sg579
I1
sg111
I1
ssg285
(dp877
g290
I1
ssg128
(dp878
g676
I1
ssg290
(dp879
g601
I1
ssg203
(dp880
g154
I1
ssg295
(dp881
g10
I1
ssg298
(dp882
g126
I1
ssg300
(dp883
g19
I1
ssg302
(dp884
g505
I1
ssg305
(dp885
g319
I1
ssg308
(dp886
g240
I1
sg341
I1
ssg247
(dp887
g707
I1
sg522
I1
ssg236
(dp888
g376
I1
ssg317
(dp889
g121
I1
sg511
I1
ssg320
(dp890
g646
I1
sg514
I1
ssg324
(dp891
g212
I1
ssg326
(dp892
g623
I1
ssg329
(dp893
g52
I1
sg641
I1
ssg332
(dp894
g269
I1
ssg335
(dp895
g618
I1
ssg338
(dp896
g599
I1
ssg341
(dp897
g181
I1
sg575
I1
ssg345
(dp898
g771
I1
ssg52
(dp899
g220
I1
ssg350
(dp900
g609
I1
ssg353
(dp901
g70
I1
ssg264
(dp902
g31
I1
ssg357
(dp903
g83
I1
sg677
I1
ssg361
(dp904
g583
I1
ssg364
(dp905
g322
I1
ssg366
(dp906
g504
I1
ssg369
(dp907
g284
I1
ssg372
(dp908
g345
I1
ssg316
(dp909
g425
I1
ssg377
(dp910
g734
I1
sg172
I1
ssg381
(dp911
g363
I1
ssg383
(dp912
g34
I1
ssg239
(dp913
g372
I1
ssg387
(dp914
g485
I1
sg594
I1
sg9
I1
sg198
I1
ssg140
(dp915
S'about'
p916
I1
sg86
I1
sg511
I1
ssg221
(dp917
g232
I1
ssg398
(dp918
g130
I1
sg364
I1
sg691
I1
sg256
I1
sg778
I1
sg476
I1
sS'preschool'
p919
I1
ssg407
(dp920
g300
I1
sg31
I1
sg58
I1
ssg77
(dp921
g95
I1
sg410
I1
ssg412
(dp922
g393
I1
ssg415
(dp923
S'world'
p924
I1
ssg49
(dp925
g29
I1
ssg420
(dp926
g23
I1
ssg423
(dp927
g90
I1
ssg425
(dp928
g665
I1
sg625
I1
sg283
I1
sg185
I1
sg703
I1
ssg431
(dp929
g145
I1
ssg218
(dp930
g150
I1
ssg435
(dp931
g105
I1
ssg438
(dp932
g780
I1
sg22
I1
ssg441
(dp933
g487
I1
sg387
I1
ssg150
(dp934
g496
I1
ssg446
(dp935
g82
I1
ssg449
(dp936
g195
I1
ssg452
(dp937
g264
I1
ssg58
(dp938
g723
I1
ssg457
(dp939
g47
I1
ssg459
(dp940
g713
I1
ssg461
(dp941
g529
I1
ssg463
(dp942
g480
I1
ssg466
(dp943
g684
I1
ssg166
(dp944
g678
I1
sg287
I1
ssg76
(dp945
g562
I1
ssg472
(dp946
g282
I1
ssg404
(dp947
g584
I1
ssg84
(dp948
g407
I1
ssg465
(dp949
g559
I1
ssg481
(dp950
g359
I1
sg237
I1
ssg391
(dp951
g449
I1
ssg443
(dp952
g389
I1
sg736
I1
sg465
I1
sg44
I1
ssg374
(dp953
g347
I1
ssg490
(dp954
g433
I1
ssg492
(dp955
g649
I1
ssg445
(dp956
g709
I1
ssg497
(dp957
g701
I1
ssg283
(dp958
g745
I1
sg457
I1
sg13
I2
sg245
I1
sg534
I1
sg261
I1
sg690
I1
sg308
I1
sg573
I1
sg335
I1
sg438
I1
sg588
I1
ssg86
(dp959
g193
I1
ssg501
(dp960
g117
I1
ssg323
(dp961
g472
I1
ssg74
(dp962
g124
I1
ssg516
(dp963
g108
I1
ssg430
(dp964
g138
I1
sg273
I1
sg720
I1
ssg153
(dp965
g171
I1
sg585
I1
ssg511
(dp966
S'about'
p967
I1
sg62
I1
sg592
I1
ssg526
(dp968
g216
I1
ssg529
(dp969
g119
I1
ssg531
(dp970
g38
I1
ssg534
(dp971
g448
I1
ssg380
(dp972
g174
I1
ssg537
(dp973
g323
I1
ssg294
(dp974
g156
I1
ssg99
(dp975
g76
I1
sg41
I1
ssg542
(dp976
g520
I1
ssg545
(dp977
g50
I1
ssg311
(dp978
g242
I1
ssg509
(dp979
g310
I1
ssg550
(dp980
S'the'
p981
I1
ssg553
(dp982
g565
I1
ssg556
(dp983
g215
I1
ssg503
(dp984
g15
I2
sg446
I1
ssg559
(dp985
g544
I1
ssg471
(dp986
g302
I1
ssg563
(dp987
g754
I1
ssg565
(dp988
g146
I1
ssg567
(dp989
S'toca'
p990
I1
ssg310
(dp991
g343
I1
ssg81
(dp992
g208
I1
ssg506
(dp993
g615
I1
sg218
I1
ssg344
(dp994
g682
I1
ssg576
(dp995
g98
I1
sg775
I1
sg688
I1
ssg287
(dp996
g552
I2
sg276
I1
sg203
I1
sg243
I1
sg605
I1
sg729
I1
sg6
I1
sg307
I1
sg292
I1
sg380
I1
sg509
I1
ssg585
(dp997
g31
I1
ssg502
(dp998
g201
I1
ssg263
(dp999
g516
I1
ssg524
(dp1000
g332
I1
ssg319
(dp1001
g53
I1
sg524
I1
ssg504
(dp1002
g337
I1
ssg596
(dp1003
g328
I1
ssg340
(dp1004
S'and'
p1005
I1
ssg131
(dp1006
g31
I1
ssg601
(dp1007
g55
I1
ssg95
(dp1008
g622
I1
ssg605
(dp1009
g420
I1
ssg352
(dp1010
g314
I1
ssg610
(dp1011
g352
I1
ssg82
(dp1012
g555
I1
ssg613
(dp1013
g78
I1
sg73
I1
sg7
I1
sg390
I1
sg391
I1
ssg337
(dp1014
g659
I1
ssg297
(dp1015
g12
I1
ssg410
(dp1016
g17
I1
ssg604
(dp1017
g580
I1
sg114
I1
ssg397
(dp1018
g234
I1
sg331
I1
sg135
I1
sg226
I1
sg494
I1
sg304
I1
sg350
I1
sg153
I1
sg59
I2
sS'to'
p1019
I1
sg518
I1
sg454
I1
sg338
I1
sg142
I1
sg32
I1
sg428
I1
sg533
I1
sg31
I1
sg616
I1
sg451
I1
sg297
I1
sg638
I1
ssg400
(dp1020
g320
I1
ssg630
(dp1021
g501
I1
ssg178
(dp1022
g508
I1
ssg234
(dp1023
g184
I1
sg726
I1
ssg625
(dp1024
g266
I1
ssg386
(dp1025
g374
I1
ssg331
(dp1026
g16
I1
ssg483
(dp1027
g239
I1
sg258
I1
sg542
I1
ssg643
(dp1028
g483
I1
sg443
I1
ssg322
(dp1029
g75
I1
ssg422
(dp1030
g25
I1
sg415
I1
sg563
I1
ssg649
(dp1031
g229
I2
ssg197
(dp1032
g311
I1
ssg208
(dp1033
g295
I1
ssg656
(dp1034
g669
I1
sg128
I1
sg227
I1
sg192
I1
sg131
I1
sg490
I1
sg326
I1
ssg61
(dp1035
g569
I1
sg503
I2
ssg507
(dp1036
g440
I1
ssg648
(dp1037
g417
I1
ssg273
(dp1038
g539
I1
ssg665
(dp1039
g213
I1
ssg376
(dp1040
g55
I1
sg279
I1
ssg141
(dp1041
g547
I1
ssg669
(dp1042
g161
I1
ssg25
(dp1043
g353
I1
ssg289
(dp1044
g427
I1
sg610
I1
sg696
I1
ssg678
(dp1045
g366
I1
sg371
I1
ssg575
(dp1046
g183
I1
sg414
I1
ssg55
(dp1047
g133
I1
sg96
I1
sg528
I1
ssg265
(dp1048
g102
I1
ssg673
(dp1049
g68
I1
ssg578
(dp1050
S'to'
p1051
I1
ssg505
(dp1052
g773
I1
ssg691
(dp1053
g112
I1
ssg694
(dp1054
g753
I1
ssg696
(dp1055
g630
I1
ssg401
(dp1056
g693
I1
ssg499
(dp1057
g656
I1
ssg437
(dp1058
g107
I1
ssg703
(dp1059
S'learn'
p1060
I1
ssg314
(dp1061
g769
I1
ssg496
(dp1062
g463
I1
ssg73
(dp1063
g578
I1
ssg67
(dp1064
g81
I1
ssg713
(dp1065
g751
I1
sg162
I1
sg582
I1
sg525
I1
ssg249
(dp1066
g361
I1
ssg9
(dp1067
g404
I1
ssg215
(dp1068
g252
I1
ssg520
(dp1069
g429
I1
ssg676
(dp1070
g698
I1
sg369
I1
ssg456
(dp1071
g469
I1
ssg275
(dp1072
g747
I1
sg79
I1
ssg582
(dp1073
g607
I1
ssg592
(dp1074
g334
I1
ssg729
(dp1075
g499
I1
ssg731
(dp1076
g255
I1
sg65
I1
ssg379
(dp1077
g680
I1
sg209
I1
ssg104
(dp1078
g177
I1
sg368
I2
sg178
I1
ssg110
(dp1079
g550
I1
ssg739
(dp1080
g705
I1
sg531
I1
ssg626
(dp1081
g137
I1
ssg177
(dp1082
g741
I1
ssg508
(dp1083
g632
I1
sg461
I1
ssg726
(dp1084
g643
I1
sg187
I1
ssg108
(dp1085
g502
I1
ssg31
(dp1086
g760
I2
sg28
I3
sg488
I1
sg317
I1
sg159
I1
sg431
I1
ssg92
(dp1087
g31
I1
ssg163
(dp1088
g263
I1
ssg607
(dp1089
g422
I1
ssg752
(dp1090
g452
I1
ssg130
(dp1091
g715
I1
ssg222
(dp1092
g31
I1
ssg261
(dp1093
g628
I2
ssg701
(dp1094
g658
I1
ssg707
(dp1095
g224
I1
ssg347
(dp1096
g151
I1
ssg690
(dp1097
g253
I1
ssg579
(dp1098
g379
I1
ssg451
(dp1099
g197
I1
ssg292
(dp1100
g268
I1
sg474
I1
sg163
I1
sg466
I1
sg340
I1
sg200
I1
sg204
I1
sg556
I1
sg87
I1
sg441
I2
sg99
I1
sS'of'
p1101
I1
sg61
I3
sg671
I1
sg437
I1
sg497
I1
sg35
I1
ssg440
(dp1102
g613
I1
sssS'first_words'
p1103
(dp1104
S'help'
p1105
I1
sS'give'
p1106
I1
sS'scholly'
p1107
I1
sS'ryder'
p1108
I2
sS'cheerful'
p1109
I1
sS'learning'
p1110
I1
sS'blast'
p1111
I1
sS"mickey's"
p1112
I1
sS'monkey'
p1113
I1
sS'get'
p1114
I2
sg68
I1
sS'take'
p1115
I1
sS'you'
p1116
I1
sg31
I1
sS'play'
p1117
I1
sS'toca'
p1118
I1
sS'an'
p1119
I2
sS'spectacular'
p1120
I1
sS'nature'
p1121
I1
sS'dive'
p1122
I1
sS'welcome'
p1123
I1
sS'most'
p1124
I1
sS'alcoholics'
p1125
I1
sS'let'
p1126
I1
sS'hear,'
p1127
I1
sS'see,'
p1128
I1
sS'counting,'
p1129
I1
sS'stack'
p1130
I2
sS'expand'
p1131
I1
sS'building'
p1132
I1
sS'10'
p1133
I1
sS'kids'
p1134
I2
sS'join'
p1135
I2
sS'letters,'
p1136
I1
sS'fun'
p1137
I1
sS'meet'
p1138
I1
sS'the'
p1139
I7
sS'play,'
p1140
I1
ssb.